target datalayout = "e-m:e-p270:32:32-p271:32:32-p272:64:64-i64:64-i128:128-f80:128-n8:16:32:64-S128"
target triple = "x86_64-pc-linux-gnu"

%struct.opj_jp2 = type { ptr, ptr, ptr, i32, i32, i32, i32, i32, i32, i32, i32, i32, i32, i32, i32, i32, i32, ptr, ptr, i64, i64, i32, i32, i32, %struct.opj_jp2_color, i32, i8, i8 }
%struct.opj_jp2_color = type { ptr, i32, ptr, ptr, i8 }

; Function Attrs: nounwind uwtable
define internal ptr @opj_jp2_write_colr(ptr noundef %0, ptr noundef %1) #0 {
  %3 = alloca ptr, align 8
  %4 = alloca ptr, align 8
  %5 = alloca ptr, align 8
  %6 = alloca i32, align 4
  %7 = alloca ptr, align 8
  %8 = alloca ptr, align 8
  %9 = alloca i32, align 4
  %10 = alloca i32, align 4
  store ptr %0, ptr %4, align 8, !tbaa !3
  store ptr %1, ptr %5, align 8, !tbaa !105
  call void @llvm.lifetime.start.p0(i64 4, ptr %6) #5
  store i32 11, ptr %6, align 4, !tbaa !39
  call void @llvm.lifetime.start.p0(i64 8, ptr %7) #5
  call void @llvm.lifetime.start.p0(i64 8, ptr %8) #5
  %11 = load ptr, ptr %4, align 8, !tbaa !3
  %12 = getelementptr inbounds nuw %struct.opj_jp2, ptr %11, i32 0, i32 10
  %13 = load i32, ptr %12, align 4, !tbaa !71
  switch i32 %13, label %24 [
    i32 1, label %14
    i32 2, label %17
  ]

14:                                               ; preds = %2
  %15 = load i32, ptr %6, align 4, !tbaa !39
  %16 = add i32 %15, 4
  store i32 %16, ptr %6, align 4, !tbaa !39
  br label %25

17:                                               ; preds = %2
  %18 = load ptr, ptr %4, align 8, !tbaa !3
  %19 = getelementptr inbounds nuw %struct.opj_jp2, ptr %18, i32 0, i32 24
  %20 = getelementptr inbounds nuw %struct.opj_jp2_color, ptr %19, i32 0, i32 1
  %21 = load i32, ptr %20, align 8, !tbaa !104
  %22 = load i32, ptr %6, align 4, !tbaa !39
  %23 = add i32 %22, %21
  store i32 %23, ptr %6, align 4, !tbaa !39
  br label %25

24:                                               ; preds = %2
  store ptr null, ptr %3, align 8
  store i32 1, ptr %9, align 4
  br label %103

25:                                               ; preds = %17, %14
  %26 = load i32, ptr %6, align 4, !tbaa !39
  %27 = zext i32 %26 to i64
  %28 = call ptr @opj_calloc(i64 noundef 1, i64 noundef %27)
  store ptr %28, ptr %7, align 8, !tbaa !106
  %29 = load ptr, ptr %7, align 8, !tbaa !106
  %30 = icmp eq ptr %29, null
  br i1 %30, label %31, label %32

31:                                               ; preds = %25
  store ptr null, ptr %3, align 8
  store i32 1, ptr %9, align 4
  br label %103

32:                                               ; preds = %25
  %33 = load ptr, ptr %7, align 8, !tbaa !106
  store ptr %33, ptr %8, align 8, !tbaa !106
  %34 = load ptr, ptr %8, align 8, !tbaa !106
  %35 = load i32, ptr %6, align 4, !tbaa !39
  call void @opj_write_bytes_LE(ptr noundef %34, i32 noundef %35, i32 noundef 4)
  %36 = load ptr, ptr %8, align 8, !tbaa !106
  %37 = getelementptr inbounds i8, ptr %36, i64 4
  store ptr %37, ptr %8, align 8, !tbaa !106
  %38 = load ptr, ptr %8, align 8, !tbaa !106
  call void @opj_write_bytes_LE(ptr noundef %38, i32 noundef 1668246642, i32 noundef 4)
  %39 = load ptr, ptr %8, align 8, !tbaa !106
  %40 = getelementptr inbounds i8, ptr %39, i64 4
  store ptr %40, ptr %8, align 8, !tbaa !106
  %41 = load ptr, ptr %8, align 8, !tbaa !106
  %42 = load ptr, ptr %4, align 8, !tbaa !3
  %43 = getelementptr inbounds nuw %struct.opj_jp2, ptr %42, i32 0, i32 10
  %44 = load i32, ptr %43, align 4, !tbaa !71
  call void @opj_write_bytes_LE(ptr noundef %41, i32 noundef %44, i32 noundef 1)
  %45 = load ptr, ptr %8, align 8, !tbaa !106
  %46 = getelementptr inbounds nuw i8, ptr %45, i32 1
  store ptr %46, ptr %8, align 8, !tbaa !106
  %47 = load ptr, ptr %8, align 8, !tbaa !106
  %48 = load ptr, ptr %4, align 8, !tbaa !3
  %49 = getelementptr inbounds nuw %struct.opj_jp2, ptr %48, i32 0, i32 13
  %50 = load i32, ptr %49, align 8, !tbaa !86
  call void @opj_write_bytes_LE(ptr noundef %47, i32 noundef %50, i32 noundef 1)
  %51 = load ptr, ptr %8, align 8, !tbaa !106
  %52 = getelementptr inbounds nuw i8, ptr %51, i32 1
  store ptr %52, ptr %8, align 8, !tbaa !106
  %53 = load ptr, ptr %8, align 8, !tbaa !106
  %54 = load ptr, ptr %4, align 8, !tbaa !3
  %55 = getelementptr inbounds nuw %struct.opj_jp2, ptr %54, i32 0, i32 11
  %56 = load i32, ptr %55, align 8, !tbaa !87
  call void @opj_write_bytes_LE(ptr noundef %53, i32 noundef %56, i32 noundef 1)
  %57 = load ptr, ptr %8, align 8, !tbaa !106
  %58 = getelementptr inbounds nuw i8, ptr %57, i32 1
  store ptr %58, ptr %8, align 8, !tbaa !106
  %59 = load ptr, ptr %4, align 8, !tbaa !3
  %60 = getelementptr inbounds nuw %struct.opj_jp2, ptr %59, i32 0, i32 10
  %61 = load i32, ptr %60, align 4, !tbaa !71
  %62 = icmp eq i32 %61, 1
  br i1 %62, label %63, label %68

63:                                               ; preds = %32
  %64 = load ptr, ptr %8, align 8, !tbaa !106
  %65 = load ptr, ptr %4, align 8, !tbaa !3
  %66 = getelementptr inbounds nuw %struct.opj_jp2, ptr %65, i32 0, i32 12
  %67 = load i32, ptr %66, align 4, !tbaa !72
  call void @opj_write_bytes_LE(ptr noundef %64, i32 noundef %67, i32 noundef 4)
  br label %99

68:                                               ; preds = %32
  %69 = load ptr, ptr %4, align 8, !tbaa !3
  %70 = getelementptr inbounds nuw %struct.opj_jp2, ptr %69, i32 0, i32 10
  %71 = load i32, ptr %70, align 4, !tbaa !71
  %72 = icmp eq i32 %71, 2
  br i1 %72, label %73, label %98

73:                                               ; preds = %68
  call void @llvm.lifetime.start.p0(i64 4, ptr %10) #5
  store i32 0, ptr %10, align 4, !tbaa !39
  br label %74

74:                                               ; preds = %94, %73
  %75 = load i32, ptr %10, align 4, !tbaa !39
  %76 = load ptr, ptr %4, align 8, !tbaa !3
  %77 = getelementptr inbounds nuw %struct.opj_jp2, ptr %76, i32 0, i32 24
  %78 = getelementptr inbounds nuw %struct.opj_jp2_color, ptr %77, i32 0, i32 1
  %79 = load i32, ptr %78, align 8, !tbaa !104
  %80 = icmp ult i32 %75, %79
  br i1 %80, label %81, label %97

81:                                               ; preds = %74
  %82 = load ptr, ptr %8, align 8, !tbaa !106
  %83 = load ptr, ptr %4, align 8, !tbaa !3
  %84 = getelementptr inbounds nuw %struct.opj_jp2, ptr %83, i32 0, i32 24
  %85 = getelementptr inbounds nuw %struct.opj_jp2_color, ptr %84, i32 0, i32 0
  %86 = load ptr, ptr %85, align 8, !tbaa !102
  %87 = load i32, ptr %10, align 4, !tbaa !39
  %88 = zext i32 %87 to i64
  %89 = getelementptr inbounds nuw i8, ptr %86, i64 %88
  %90 = load i8, ptr %89, align 1, !tbaa !26
  %91 = zext i8 %90 to i32
  call void @opj_write_bytes_LE(ptr noundef %82, i32 noundef %91, i32 noundef 1)
  %92 = load ptr, ptr %8, align 8, !tbaa !106
  %93 = getelementptr inbounds nuw i8, ptr %92, i32 1
  store ptr %93, ptr %8, align 8, !tbaa !106
  br label %94

94:                                               ; preds = %81
  %95 = load i32, ptr %10, align 4, !tbaa !39
  %96 = add i32 %95, 1
  store i32 %96, ptr %10, align 4, !tbaa !39
  br label %74, !llvm.loop !199

97:                                               ; preds = %74
  call void @llvm.lifetime.end.p0(i64 4, ptr %10) #5
  br label %98

98:                                               ; preds = %97, %68
  br label %99

99:                                               ; preds = %98, %63
  %100 = load i32, ptr %6, align 4, !tbaa !39
  %101 = load ptr, ptr %5, align 8, !tbaa !105
  store i32 %100, ptr %101, align 4, !tbaa !39
  %102 = load ptr, ptr %7, align 8, !tbaa !106
  store ptr %102, ptr %3, align 8
  store i32 1, ptr %9, align 4
  br label %103

103:                                              ; preds = %99, %31, %24
  call void @llvm.lifetime.end.p0(i64 8, ptr %8) #5
  call void @llvm.lifetime.end.p0(i64 8, ptr %7) #5
  call void @llvm.lifetime.end.p0(i64 4, ptr %6) #5
  %104 = load ptr, ptr %3, align 8
  ret ptr %104
}