; Function Attrs: nounwind uwtable
define internal ptr @opj_jp2_write_colr(ptr noundef readonly captures(none) %0, ptr noundef writeonly captures(none) %1) #0 {
  %3 = getelementptr inbounds nuw i8, ptr %0, i64 52
  %4 = load i32, ptr %3, align 4, !tbaa !99
  switch i32 %4, label %40 [
    i32 1, label %9
    i32 2, label %5
  ]

5:                                                ; preds = %2
  %6 = getelementptr inbounds nuw i8, ptr %0, i64 136
  %7 = load i32, ptr %6, align 8, !tbaa !120
  %8 = add i32 %7, 11
  br label %9

9:                                                ; preds = %2, %5
  %.037 = phi i32 [ %8, %5 ], [ 15, %2 ]
  %10 = zext i32 %.037 to i64
  %11 = tail call ptr @opj_calloc(i64 noundef 1, i64 noundef %10) #6
  %12 = icmp eq ptr %11, null
  br i1 %12, label %40, label %13

13:                                               ; preds = %9
  tail call void @opj_write_bytes_LE(ptr noundef nonnull %11, i32 noundef %.037, i32 noundef 4) #6
  %14 = getelementptr inbounds nuw i8, ptr %11, i64 4
  tail call void @opj_write_bytes_LE(ptr noundef nonnull %14, i32 noundef 1668246642, i32 noundef 4) #6
  %15 = getelementptr inbounds nuw i8, ptr %11, i64 8
  %16 = load i32, ptr %3, align 4, !tbaa !99
  tail call void @opj_write_bytes_LE(ptr noundef nonnull %15, i32 noundef %16, i32 noundef 1) #6
  %17 = getelementptr inbounds nuw i8, ptr %11, i64 9
  %18 = getelementptr inbounds nuw i8, ptr %0, i64 64
  %19 = load i32, ptr %18, align 8, !tbaa !105
  tail call void @opj_write_bytes_LE(ptr noundef nonnull %17, i32 noundef %19, i32 noundef 1) #6
  %20 = getelementptr inbounds nuw i8, ptr %11, i64 10
  %21 = getelementptr inbounds nuw i8, ptr %0, i64 56
  %22 = load i32, ptr %21, align 8, !tbaa !106
  tail call void @opj_write_bytes_LE(ptr noundef nonnull %20, i32 noundef %22, i32 noundef 1) #6
  %23 = getelementptr inbounds nuw i8, ptr %11, i64 11
  %24 = load i32, ptr %3, align 4, !tbaa !99
  switch i32 %24, label %.loopexit [
    i32 1, label %28
    i32 2, label %.preheader
  ]

.preheader:                                       ; preds = %13
  %25 = getelementptr inbounds nuw i8, ptr %0, i64 136
  %26 = load i32, ptr %25, align 8, !tbaa !120
  %.not = icmp eq i32 %26, 0
  br i1 %.not, label %.loopexit, label %.lr.ph

.lr.ph:                                           ; preds = %.preheader
  %27 = getelementptr inbounds nuw i8, ptr %0, i64 128
  br label %31

28:                                               ; preds = %13
  %29 = getelementptr inbounds nuw i8, ptr %0, i64 60
  %30 = load i32, ptr %29, align 4, !tbaa !101
  tail call void @opj_write_bytes_LE(ptr noundef nonnull %23, i32 noundef %30, i32 noundef 4) #6
  br label %.loopexit

31:                                               ; preds = %.lr.ph, %31
  %indvars.iv = phi i64 [ 0, %.lr.ph ], [ %indvars.iv.next, %31 ]
  %.03540 = phi ptr [ %23, %.lr.ph ], [ %36, %31 ]
  %32 = load ptr, ptr %27, align 8, !tbaa !118
  %33 = getelementptr inbounds nuw i8, ptr %32, i64 %indvars.iv
  %34 = load i8, ptr %33, align 1, !tbaa !18
  %35 = zext i8 %34 to i32
  tail call void @opj_write_bytes_LE(ptr noundef nonnull %.03540, i32 noundef %35, i32 noundef 1) #6
  %36 = getelementptr inbounds nuw i8, ptr %.03540, i64 1
  %indvars.iv.next = add nuw nsw i64 %indvars.iv, 1
  %37 = load i32, ptr %25, align 8, !tbaa !120
  %38 = zext i32 %37 to i64
  %39 = icmp samesign ult i64 %indvars.iv.next, %38
  br i1 %39, label %31, label %.loopexit, !llvm.loop !163

.loopexit:                                        ; preds = %31, %.preheader, %13, %28
  store i32 %.037, ptr %1, align 4, !tbaa !46
  br label %40

40:                                               ; preds = %9, %2, %.loopexit
  %.036 = phi ptr [ %11, %.loopexit ], [ null, %2 ], [ null, %9 ]
  ret ptr %.036
}